; Function Attrs: nounwind uwtable
define hidden void @zif_xmlwriter_start_element_ns(ptr noundef %0, ptr nocapture noundef writeonly %1) #0 {
  %3 = alloca ptr, align 8
  %4 = alloca ptr, align 8
  %5 = alloca ptr, align 8
  %6 = alloca i64, align 8
  %7 = alloca i64, align 8
  %8 = alloca i64, align 8
  %9 = alloca ptr, align 8
  %10 = getelementptr inbounds i8, ptr %0, i64 32
  %11 = getelementptr inbounds i8, ptr %0, i64 44
  %12 = load i32, ptr %11, align 4
  %13 = getelementptr inbounds i8, ptr %0, i64 40
  %14 = load i8, ptr %13, align 8
  %15 = icmp eq i8 %14, 8
  %16 = select i1 %15, ptr %10, ptr null
  %17 = load ptr, ptr @xmlwriter_class_entry_ce, align 8
  %18 = call i32 (i32, ptr, ptr, ...) @zend_parse_method_parameters(i32 noundef %12, ptr noundef %16, ptr noundef nonnull @.str.6, ptr noundef nonnull %9, ptr noundef %17, ptr noundef nonnull %4, ptr noundef nonnull %7, ptr noundef nonnull %3, ptr noundef nonnull %6, ptr noundef nonnull %5, ptr noundef nonnull %8) #11
  %19 = icmp eq i32 %18, -1
  br i1 %19, label %20, label %23

20:                                               ; preds = %2
  %21 = load ptr, ptr getelementptr inbounds (%struct._zend_executor_globals, ptr @executor_globals, i64 0, i32 50), align 8
  %22 = icmp ne ptr %21, null
  call void @llvm.assume(i1 %22)
  br label %45

23:                                               ; preds = %2
  %24 = load ptr, ptr %9, align 8
  %25 = load ptr, ptr %24, align 8
  %26 = getelementptr inbounds i8, ptr %25, i64 -16
  %27 = load ptr, ptr %26, align 8
  %.not = icmp eq ptr %27, null
  br i1 %.not, label %28, label %31

28:                                               ; preds = %23
  call void (ptr, ptr, ...) @zend_throw_error(ptr noundef null, ptr noundef nonnull @.str.4) #11
  %29 = load ptr, ptr getelementptr inbounds (%struct._zend_executor_globals, ptr @executor_globals, i64 0, i32 50), align 8
  %30 = icmp ne ptr %29, null
  call void @llvm.assume(i1 %30)
  br label %45

31:                                               ; preds = %23
  %32 = load ptr, ptr %3, align 8
  %33 = call i32 @xmlValidateName(ptr noundef %32, i32 noundef 0) #11
  %.not8 = icmp eq i32 %33, 0
  br i1 %.not8, label %38, label %34

34:                                               ; preds = %31
  %35 = load ptr, ptr %3, align 8
  call void (i32, ptr, ...) @zend_argument_value_error(i32 noundef 3, ptr noundef nonnull @.str.7, ptr noundef nonnull @.str.10, ptr noundef %35) #11
  %36 = load ptr, ptr getelementptr inbounds (%struct._zend_executor_globals, ptr @executor_globals, i64 0, i32 50), align 8
  %37 = icmp ne ptr %36, null
  call void @llvm.assume(i1 %37)
  br label %45

38:                                               ; preds = %31
  %39 = load ptr, ptr %4, align 8
  %40 = load ptr, ptr %3, align 8
  %41 = load ptr, ptr %5, align 8
  %42 = call i32 @xmlTextWriterStartElementNS(ptr noundef nonnull %27, ptr noundef %39, ptr noundef %40, ptr noundef %41) #11
  %.not9 = icmp eq i32 %42, -1
  %43 = select i1 %.not9, i32 2, i32 3
  %44 = getelementptr inbounds i8, ptr %1, i64 8
  store i32 %43, ptr %44, align 8
  br label %45

45:                                               ; preds = %38, %34, %28, %20
  ret void
}